Certificate:
    Data:
        Version: 3 (0x2)
        Serial Number: 1 (0x1)
    Signature Algorithm: sha1WithRSAEncryption
        Issuer: C=US, ST=Unset, L=Unset, O=Unset, CN=www.example.com
        Validity
            Not Before: Aug 29 12:46:35 2014 GMT
            Not After : Aug 26 12:46:35 2024 GMT
        Subject: C=US, ST=Unset, O=Unset, CN=www.example.com
        Subject Public Key Info:
            Public Key Algorithm: rsaEncryption
                Public-Key: (2048 bit)
                Modulus:
                    00:d4:c5:77:97:27:b5:3f:ef:d4:12:cc:89:86:6c:
                    fb:57:68:ca:29:85:b5:1c:69:a6:8e:8a:f3:ac:b4:
                    60:e4:7a:b9:76:89:6f:9e:3a:c1:76:84:b9:48:ee:
                    7c:3f:73:82:6a:8c:7c:e3:72:8d:76:6b:be:ed:64:
                    89:a1:67:34:37:c8:52:cf:8c:dc:7f:93:3c:5e:d4:
                    73:ea:f8:7c:cd:03:ad:6b:8f:a5:5c:b9:a1:63:fb:
                    78:f1:95:f3:c4:d0:90:94:40:db:c8:33:94:cb:ee:
                    ad:45:a4:18:e9:79:c6:1a:18:65:99:9b:d5:46:c4:
                    1e:de:c0:7d:db:5b:43:db:f1:5a:e6:07:32:46:ad:
                    62:35:a8:ac:37:dd:cb:f6:ee:19:44:c7:9d:4e:01:
                    38:87:41:3d:16:cc:1c:00:8d:9b:4a:fe:d4:15:23:
                    dd:3e:75:86:dd:86:0b:37:1f:23:5b:95:46:3d:9a:
                    1e:be:22:49:04:ef:32:af:36:84:16:13:15:25:94:
                    57:71:53:56:82:b8:0b:b6:7f:04:86:86:80:32:50:
                    73:b3:7d:b9:f4:fc:58:92:cf:02:f3:75:c9:89:33:
                    3e:dd:a5:42:5d:e0:59:51:f4:b6:46:29:b6:1a:74:
                    89:0f:e2:af:5e:3b:5e:c3:d6:5a:e7:89:e5:dd:8e:
                    b4:53
                Exponent: 65537 (0x10001)
        X509v3 extensions:
            X509v3 Basic Constraints: 
                CA:FALSE
            X509v3 Subject Key Identifier: 
                BF:C7:C7:C7:6D:8D:9C:0A:54:9E:8F:05:A1:28:24:E9:A6:90:EC:4D
            X509v3 Authority Key Identifier: 
                keyid:4A:D6:69:0D:72:6D:41:B0:E2:23:14:3E:48:CA:91:02:AC:A1:D8:1A

    Signature Algorithm: sha1WithRSAEncryption
         72:db:22:48:ba:87:c8:dd:53:48:de:14:aa:8e:66:a8:6d:a0:
         23:8c:a4:e8:42:6b:9b:5b:e2:6b:c0:b4:df:41:58:ef:15:e9:
         b7:1e:8b:0c:79:98:1f:9e:1f:cd:45:8f:49:80:db:66:aa:3f:
         f2:58:85:03:b6:41:6d:bb:68:97:d4:26:d1:59:dd:8d:8d:bf:
         98:a2:e9:fd:2d:47:4c:db:41:38:68:94:e0:71:f9:6f:ce:1d:
         b7:f8:b7:74:2a:3f:f9:9a:7b:c9:e1:9b:aa:62:d5:e8:43:07:
         ef:86:a9:7f:87:1b:af:8d:f8:18:1a:05:d3:d8:4b:4b:1b:2f:
         b5:75:25:1a:34:88:ad:7e:d0:11:97:35:61:57:67:2a:72:d9:
         ae:86:72:7d:1b:df:eb:ea:f1:84:52:9c:89:d2:04:0a:11:fd:
         45:00:70:26:1d:ea:5d:19:bd:44:06:da:fc:8a:0e:10:8a:53:
         58:1b:16:15:c5:6e:2d:44:d8:ad:50:f7:fc:71:be:1e:f1:05:
         c4:50:6c:b1:c1:a3:20:c0:72:38:98:82:53:94:bb:d0:9c:d9:
         1e:29:e7:73:b8:c7:99:77:d6:0f:66:87:f3:00:0b:f5:de:68:
         8c:20:2a:0b:2c:41:b5:a0:1a:dc:a1:45:d2:d0:57:05:d9:b0:
         3f:e7:76:e3
-----BEGIN CERTIFICATE-----
MIIDZjCCAk6gAwIBAgIBATANBgkqhkiG9w0BAQUFADBXMQswCQYDVQQGEwJVUzEO
MAwGA1UECAwFVW5zZXQxDjAMBgNVBAcMBVVuc2V0MQ4wDAYDVQQKDAVVbnNldDEY
MBYGA1UEAwwPd3d3LmV4YW1wbGUuY29tMB4XDTE0MDgyOTEyNDYzNVoXDTI0MDgy
NjEyNDYzNVowRzELMAkGA1UEBhMCVVMxDjAMBgNVBAgMBVVuc2V0MQ4wDAYDVQQK
DAVVbnNldDEYMBYGA1UEAwwPd3d3LmV4YW1wbGUuY29tMIIBIjANBgkqhkiG9w0B
AQEFAAOCAQ8AMIIBCgKCAQEA1MV3lye1P+/UEsyJhmz7V2jKKYW1HGmmjorzrLRg
5Hq5dolvnjrBdoS5SO58P3OCaox843KNdmu+7WSJoWc0N8hSz4zcf5M8XtRz6vh8
zQOta4+lXLmhY/t48ZXzxNCQlEDbyDOUy+6tRaQY6XnGGhhlmZvVRsQe3sB921tD
2/Fa5gcyRq1iNaisN93L9u4ZRMedTgE4h0E9FswcAI2bSv7UFSPdPnWG3YYLNx8j
W5VGPZoeviJJBO8yrzaEFhMVJZRXcVNWgrgLtn8EhoaAMlBzs3259PxYks8C83XJ
iTM+3aVCXeBZUfS2Rim2GnSJD+KvXjtew9Za54nl3Y60UwIDAQABo00wSzAJBgNV
HRMEAjAAMB0GA1UdDgQWBBS/x8fHbY2cClSejwWhKCTpppDsTTAfBgNVHSMEGDAW
gBRK1mkNcm1BsOIjFD5IypECrKHYGjANBgkqhkiG9w0BAQUFAAOCAQEActsiSLqH
yN1TSN4Uqo5mqG2gI4yk6EJrm1via8C030FY7xXptx6LDHmYH54fzUWPSYDbZqo/
8liFA7ZBbbtol9Qm0VndjY2/mKLp/S1HTNtBOGiU4HH5b84dt/i3dCo/+Zp7yeGb
qmLV6EMH74apf4cbr434GBoF09hLSxsvtXUlGjSIrX7QEZc1YVdnKnLZroZyfRvf
6+rxhFKcidIEChH9RQBwJh3qXRm9RAba/IoOEIpTWBsWFcVuLUTYrVD3/HG+HvEF
xFBsscGjIMByOJiCU5S70JzZHinnc7jHmXfWD2aH8wAL9d5ojCAqCyxBtaAa3KFF
0tBXBdmwP+d24w==
-----END CERTIFICATE-----
